; Function Attrs: mustprogress nofree norecurse nosync nounwind willreturn memory(read, inaccessiblemem: none) uwtable
define noundef zeroext i1 @_ZNK3gmx16StringOptionInfo12isEnumeratedEv(ptr noundef nonnull readonly align 8 captures(none) dereferenceable(16) %0) local_unnamed_addr #9 align 2 {
  %2 = getelementptr inbounds nuw i8, ptr %0, i64 8
  %3 = load ptr, ptr %2, align 8, !tbaa !29
  %4 = getelementptr inbounds nuw i8, ptr %3, i64 216
  %5 = load ptr, ptr %4, align 8, !tbaa !276
  %6 = getelementptr inbounds nuw i8, ptr %3, i64 224
  %7 = load ptr, ptr %6, align 8, !tbaa !276
  %8 = icmp ne ptr %5, %7
  ret i1 %8
}